; Function Attrs: nounwind uwtable
define hidden void @lexbor_mraw_clean(ptr noundef %0) local_unnamed_addr #0 {
  %.not = icmp eq ptr %0, null
  br i1 %.not, label %7, label %2

2:                                                ; preds = %1
  %3 = load ptr, ptr %0, align 8
  tail call void @lexbor_mem_clean(ptr noundef %3) #7
  %4 = getelementptr inbounds i8, ptr %0, i64 8
  %5 = load ptr, ptr %4, align 8
  tail call void @lexbor_bst_clean(ptr noundef %5) #7
  %6 = getelementptr inbounds i8, ptr %0, i64 16
  store i64 0, ptr %6, align 8
  br label %7

7:                                                ; preds = %2, %1
  ret void
}